target datalayout = "e-m:e-p270:32:32-p271:32:32-p272:64:64-i64:64-i128:128-f80:128-n8:16:32:64-S128"
target triple = "x86_64-pc-linux-gnu"

%struct.IDAMemRec = type { ptr, double, ptr, ptr, i32, double, double, ptr, i32, i32, ptr, ptr, i32, i32, i32, ptr, ptr, i32, i32, double, double, ptr, i32, i32, i32, i32, ptr, ptr, i32, ptr, ptr, ptr, i32, double, i32, i32, double, ptr, ptr, ptr, i32, ptr, ptr, i32, i32, i32, double, ptr, ptr, ptr, [6 x ptr], [6 x double], [6 x double], [6 x double], [6 x double], [6 x double], ptr, ptr, ptr, ptr, ptr, ptr, ptr, ptr, ptr, ptr, ptr, ptr, ptr, ptr, ptr, ptr, ptr, [6 x ptr], ptr, ptr, ptr, ptr, [6 x ptr], ptr, ptr, ptr, ptr, ptr, ptr, ptr, ptr, ptr, ptr, ptr, ptr, ptr, ptr, ptr, ptr, [6 x ptr], ptr, ptr, ptr, ptr, ptr, double, ptr, ptr, i32, i32, i32, i32, i32, i32, i32, i32, double, double, double, i32, double, i32, i32, i32, i32, i32, double, double, double, double, double, double, double, double, double, double, double, double, double, double, double, double, double, i32, i32, i32, i32, i64, double, double, double, double, double, double, double, double, double, i64, i64, i64, i64, i64, i64, i64, i64, i64, i64, i64, i64, i64, i64, i64, i64, i64, i64, i64, i64, i64, i64, i64, i64, i64, i64, double, i32, i32, i32, i32, i32, i32, i32, i32, i32, i32, i32, i32, i32, ptr, i32, ptr, i32, ptr, i32, ptr, ptr, ptr, ptr, ptr, ptr, i32, i32, ptr, ptr, ptr, ptr, ptr, ptr, ptr, double, i32, i32, ptr, i32, ptr, ptr, double, double, double, ptr, ptr, ptr, double, double, i32, i32, i64, ptr, i32, ptr, [5 x double], ptr, ptr, i32, ptr, i32 }

; Function Attrs: nounwind uwtable
define double @IDAWrmsNorm(ptr noundef %0, ptr noundef %1, ptr noundef %2, i32 noundef %3) #0 {
  %5 = alloca ptr, align 8
  %6 = alloca ptr, align 8
  %7 = alloca ptr, align 8
  %8 = alloca i32, align 4
  %9 = alloca double, align 8
  store ptr %0, ptr %5, align 8, !tbaa !8
  store ptr %1, ptr %6, align 8, !tbaa !124
  store ptr %2, ptr %7, align 8, !tbaa !124
  store i32 %3, ptr %8, align 4, !tbaa !114
  call void @llvm.lifetime.start.p0(i64 8, ptr %9) #10
  %10 = load i32, ptr %8, align 4, !tbaa !114
  %11 = icmp ne i32 %10, 0
  br i1 %11, label %12, label %19

12:                                               ; preds = %4
  %13 = load ptr, ptr %6, align 8, !tbaa !124
  %14 = load ptr, ptr %7, align 8, !tbaa !124
  %15 = load ptr, ptr %5, align 8, !tbaa !8
  %16 = getelementptr inbounds nuw %struct.IDAMemRec, ptr %15, i32 0, i32 62
  %17 = load ptr, ptr %16, align 8, !tbaa !45
  %18 = call double @N_VWrmsNormMask(ptr noundef %13, ptr noundef %14, ptr noundef %17)
  store double %18, ptr %9, align 8, !tbaa !123
  br label %23

19:                                               ; preds = %4
  %20 = load ptr, ptr %6, align 8, !tbaa !124
  %21 = load ptr, ptr %7, align 8, !tbaa !124
  %22 = call double @N_VWrmsNorm(ptr noundef %20, ptr noundef %21)
  store double %22, ptr %9, align 8, !tbaa !123
  br label %23

23:                                               ; preds = %19, %12
  %24 = load double, ptr %9, align 8, !tbaa !123
  call void @llvm.lifetime.end.p0(i64 8, ptr %9) #10
  ret double %24
}